S'eJwFwUkOgjAAAMC/cOVAWaUmHrBlk72AmN4KxNqQyJqAvN4ZSb062YPjrYQLXXJqCAIgoDxG8mB2afZiLEloo6LF71ktgNslUYX5G+5zs4yG5ScwGkOLaLEcz7Sb2KAPhQDFwdJS3QyP4WfljpqwlfhntzW8ENAo+WGQzPwEa+Ai+u3DLp/YFvUUW2N0DuGq+o3wAq4h5dRRXeEZe+1BuGzdnd29SX8WmDjw'
p0
.